target datalayout = "e-m:e-p270:32:32-p271:32:32-p272:64:64-i64:64-i128:128-f80:128-n8:16:32:64-S128"
target triple = "x86_64-pc-linux-gnu"

%struct.nstime_t = type { i64 }
%struct.hpa_central_s = type { %struct.malloc_mutex_s, ptr, i64, ptr, i64, %struct.hpa_hooks_s }
%struct.malloc_mutex_s = type { %union.anon }
%union.anon = type { %struct.anon }
%struct.anon = type { %struct.mutex_prof_data_t, %struct.atomic_b_t, %union.pthread_mutex_t }
%struct.mutex_prof_data_t = type { %struct.nstime_t, %struct.nstime_t, i64, i64, i32, %struct.atomic_u32_t, i64, ptr, i64 }
%struct.atomic_u32_t = type { i32 }
%struct.atomic_b_t = type { i8 }
%union.pthread_mutex_t = type { %struct.__pthread_mutex_s }
%struct.__pthread_mutex_s = type { i32, i32, i32, i32, i32, i16, i16, %struct.__pthread_internal_list }
%struct.__pthread_internal_list = type { ptr, ptr }
%struct.hpa_hooks_s = type { ptr, ptr, ptr, ptr, ptr, ptr, ptr }

@.str = private unnamed_addr constant [17 x i8] c"hpa_central_grow\00", align 1

; Function Attrs: nounwind uwtable
define zeroext i1 @duckdb_je_hpa_central_init(ptr noundef %0, ptr noundef %1, ptr noundef %2) #0 {
  %4 = alloca i1, align 1
  %5 = alloca ptr, align 8
  %6 = alloca ptr, align 8
  %7 = alloca ptr, align 8
  %8 = alloca i8, align 1
  %9 = alloca i32, align 4
  store ptr %0, ptr %5, align 8, !tbaa !3
  store ptr %1, ptr %6, align 8, !tbaa !8
  store ptr %2, ptr %7, align 8, !tbaa !10
  br label %10

10:                                               ; preds = %3
  br label %11

11:                                               ; preds = %10
  call void @llvm.lifetime.start.p0(i64 1, ptr %8) #7
  %12 = load ptr, ptr %5, align 8, !tbaa !3
  %13 = getelementptr inbounds nuw %struct.hpa_central_s, ptr %12, i32 0, i32 0
  %14 = call zeroext i1 @duckdb_je_malloc_mutex_init(ptr noundef %13, ptr noundef @.str, i32 noundef 19, i32 noundef 0)
  %15 = zext i1 %14 to i8
  store i8 %15, ptr %8, align 1, !tbaa !12
  %16 = load i8, ptr %8, align 1, !tbaa !12, !range !14, !noundef !15
  %17 = trunc i8 %16 to i1
  br i1 %17, label %18, label %19

18:                                               ; preds = %11
  store i1 true, ptr %4, align 1
  store i32 1, ptr %9, align 4
  br label %32

19:                                               ; preds = %11
  %20 = load ptr, ptr %6, align 8, !tbaa !8
  %21 = load ptr, ptr %5, align 8, !tbaa !3
  %22 = getelementptr inbounds nuw %struct.hpa_central_s, ptr %21, i32 0, i32 3
  store ptr %20, ptr %22, align 8, !tbaa !16
  %23 = load ptr, ptr %5, align 8, !tbaa !3
  %24 = getelementptr inbounds nuw %struct.hpa_central_s, ptr %23, i32 0, i32 1
  store ptr null, ptr %24, align 8, !tbaa !21
  %25 = load ptr, ptr %5, align 8, !tbaa !3
  %26 = getelementptr inbounds nuw %struct.hpa_central_s, ptr %25, i32 0, i32 2
  store i64 0, ptr %26, align 8, !tbaa !22
  %27 = load ptr, ptr %5, align 8, !tbaa !3
  %28 = getelementptr inbounds nuw %struct.hpa_central_s, ptr %27, i32 0, i32 4
  store i64 0, ptr %28, align 8, !tbaa !23
  %29 = load ptr, ptr %5, align 8, !tbaa !3
  %30 = getelementptr inbounds nuw %struct.hpa_central_s, ptr %29, i32 0, i32 5
  %31 = load ptr, ptr %7, align 8, !tbaa !10
  call void @llvm.memcpy.p0.p0.i64(ptr align 8 %30, ptr align 8 %31, i64 56, i1 false), !tbaa.struct !24
  store i1 false, ptr %4, align 1
  store i32 1, ptr %9, align 4
  br label %32

32:                                               ; preds = %19, %18
  call void @llvm.lifetime.end.p0(i64 1, ptr %8) #7
  %33 = load i1, ptr %4, align 1
  ret i1 %33
}