; Function Attrs: nounwind uwtable
define noundef zeroext i1 @duckdb_je_hpa_central_init(ptr noundef %0, ptr noundef %1, ptr noundef readonly captures(none) %2) local_unnamed_addr #1 {
  %4 = tail call zeroext i1 @duckdb_je_malloc_mutex_init(ptr noundef %0, ptr noundef nonnull @.str, i32 noundef 19, i32 noundef 0) #8
  br i1 %4, label %10, label %5

5:                                                ; preds = %3
  %6 = getelementptr inbounds nuw i8, ptr %0, i64 128
  store ptr %1, ptr %6, align 8, !tbaa !3
  %7 = getelementptr inbounds nuw i8, ptr %0, i64 112
  %8 = getelementptr inbounds nuw i8, ptr %0, i64 136
  store i64 0, ptr %8, align 8, !tbaa !12
  %9 = getelementptr inbounds nuw i8, ptr %0, i64 144
  tail call void @llvm.memset.p0.i64(ptr noundef nonnull align 8 dereferenceable(16) %7, i8 0, i64 16, i1 false)
  tail call void @llvm.memcpy.p0.p0.i64(ptr noundef nonnull align 8 dereferenceable(56) %9, ptr noundef nonnull align 8 dereferenceable(56) %2, i64 56, i1 false), !tbaa.struct !13
  br label %10

10:                                               ; preds = %3, %5
  ret i1 %4
}